target datalayout = "e-m:e-p270:32:32-p271:32:32-p272:64:64-i64:64-i128:128-f80:128-n8:16:32:64-S128"
target triple = "x86_64-pc-linux-gnu"

%struct.archive_write_filter = type { i64, ptr, ptr, ptr, ptr, ptr, ptr, ptr, ptr, ptr, ptr, i32, i32, i32, i32 }
%struct.private_data = type { ptr, %struct.archive_string, ptr }
%struct.archive_string = type { ptr, i64, i64 }
%struct.archive_write_program_data = type { i32, i32, i32, ptr, i64, i64, ptr }

@archive_write_add_filter_program.prefix = internal constant [10 x i8] c"Program: \00", align 1
@.str = private unnamed_addr constant [33 x i8] c"archive_write_add_filter_program\00", align 1
@.str.1 = private unnamed_addr constant [41 x i8] c"Can't allocate memory for filter program\00", align 1

; Function Attrs: nounwind uwtable
define dso_local i32 @__archive_write_program_free(ptr noundef %0) #0 {
  %2 = alloca ptr, align 8
  store ptr %0, ptr %2, align 8
  %3 = load ptr, ptr %2, align 8
  %4 = icmp ne ptr %3, null
  br i1 %4, label %5, label %13

5:                                                ; preds = %1
  %6 = load ptr, ptr %2, align 8
  %7 = getelementptr inbounds %struct.archive_write_program_data, ptr %6, i32 0, i32 6
  %8 = load ptr, ptr %7, align 8
  call void @free(ptr noundef %8) #8
  %9 = load ptr, ptr %2, align 8
  %10 = getelementptr inbounds %struct.archive_write_program_data, ptr %9, i32 0, i32 3
  %11 = load ptr, ptr %10, align 8
  call void @free(ptr noundef %11) #8
  %12 = load ptr, ptr %2, align 8
  call void @free(ptr noundef %12) #8
  br label %13

13:                                               ; preds = %5, %1
  ret i32 0
}

; Function Attrs: nounwind uwtable
define internal i32 @archive_compressor_program_free(ptr noundef %0) #0 {
  %2 = alloca ptr, align 8
  %3 = alloca ptr, align 8
  store ptr %0, ptr %2, align 8
  %4 = load ptr, ptr %2, align 8
  %5 = getelementptr inbounds %struct.archive_write_filter, ptr %4, i32 0, i32 9
  %6 = load ptr, ptr %5, align 8
  store ptr %6, ptr %3, align 8
  %7 = load ptr, ptr %3, align 8
  %8 = icmp ne ptr %7, null
  br i1 %8, label %9, label %22

9:                                                ; preds = %1
  %10 = load ptr, ptr %3, align 8
  %11 = getelementptr inbounds %struct.private_data, ptr %10, i32 0, i32 2
  %12 = load ptr, ptr %11, align 8
  call void @free(ptr noundef %12) #8
  %13 = load ptr, ptr %3, align 8
  %14 = getelementptr inbounds %struct.private_data, ptr %13, i32 0, i32 1
  call void @archive_string_free(ptr noundef %14)
  %15 = load ptr, ptr %3, align 8
  %16 = getelementptr inbounds %struct.private_data, ptr %15, i32 0, i32 0
  %17 = load ptr, ptr %16, align 8
  %18 = call i32 @__archive_write_program_free(ptr noundef %17)
  %19 = load ptr, ptr %3, align 8
  call void @free(ptr noundef %19) #8
  %20 = load ptr, ptr %2, align 8
  %21 = getelementptr inbounds %struct.archive_write_filter, ptr %20, i32 0, i32 9
  store ptr null, ptr %21, align 8
  br label %22

22:                                               ; preds = %9, %1
  ret i32 0
}

; Function Attrs: nounwind uwtable
define dso_local ptr @__archive_write_program_allocate(ptr noundef %0) #0 {
  %2 = alloca ptr, align 8
  %3 = alloca ptr, align 8
  %4 = alloca ptr, align 8
  store ptr %0, ptr %3, align 8
  %5 = call noalias ptr @calloc(i64 noundef 1, i64 noundef 48) #7
  store ptr %5, ptr %4, align 8
  %6 = load ptr, ptr %4, align 8
  %7 = icmp eq ptr %6, null
  br i1 %7, label %8, label %10

8:                                                ; preds = %1
  %9 = load ptr, ptr %4, align 8
  store ptr %9, ptr %2, align 8
  br label %20

10:                                               ; preds = %1
  %11 = load ptr, ptr %4, align 8
  %12 = getelementptr inbounds %struct.archive_write_program_data, ptr %11, i32 0, i32 1
  store i32 -1, ptr %12, align 4
  %13 = load ptr, ptr %4, align 8
  %14 = getelementptr inbounds %struct.archive_write_program_data, ptr %13, i32 0, i32 2
  store i32 -1, ptr %14, align 8
  %15 = load ptr, ptr %3, align 8
  %16 = call noalias ptr @strdup(ptr noundef %15) #8
  %17 = load ptr, ptr %4, align 8
  %18 = getelementptr inbounds %struct.archive_write_program_data, ptr %17, i32 0, i32 6
  store ptr %16, ptr %18, align 8
  %19 = load ptr, ptr %4, align 8
  store ptr %19, ptr %2, align 8
  br label %20

20:                                               ; preds = %10, %8
  %21 = load ptr, ptr %2, align 8
  ret ptr %21
}

; Function Attrs: nounwind uwtable
define dso_local i32 @archive_write_add_filter_program(ptr noundef %0, ptr noundef %1) #0 {
  %3 = alloca i32, align 4
  %4 = alloca ptr, align 8
  %5 = alloca ptr, align 8
  %6 = alloca ptr, align 8
  %7 = alloca ptr, align 8
  %8 = alloca i32, align 4
  store ptr %0, ptr %4, align 8
  store ptr %1, ptr %5, align 8
  %9 = load ptr, ptr %4, align 8
  %10 = call ptr @__archive_write_allocate_filter(ptr noundef %9)
  store ptr %10, ptr %6, align 8
  br label %11

11:                                               ; preds = %2
  %12 = load ptr, ptr %4, align 8
  %13 = call i32 @__archive_check_magic(ptr noundef %12, i32 noundef -1329217314, i32 noundef 1, ptr noundef @.str)
  store i32 %13, ptr %8, align 4
  %14 = load i32, ptr %8, align 4
  %15 = icmp eq i32 %14, -30
  br i1 %15, label %16, label %17

16:                                               ; preds = %11
  store i32 -30, ptr %3, align 4
  br label %91

17:                                               ; preds = %11
  br label %18

18:                                               ; preds = %17
  %19 = call noalias ptr @calloc(i64 noundef 1, i64 noundef 40) #7
  %20 = load ptr, ptr %6, align 8
  %21 = getelementptr inbounds %struct.archive_write_filter, ptr %20, i32 0, i32 9
  store ptr %19, ptr %21, align 8
  %22 = load ptr, ptr %6, align 8
  %23 = getelementptr inbounds %struct.archive_write_filter, ptr %22, i32 0, i32 9
  %24 = load ptr, ptr %23, align 8
  %25 = icmp eq ptr %24, null
  br i1 %25, label %26, label %27

26:                                               ; preds = %18
  br label %87

27:                                               ; preds = %18
  %28 = load ptr, ptr %6, align 8
  %29 = getelementptr inbounds %struct.archive_write_filter, ptr %28, i32 0, i32 9
  %30 = load ptr, ptr %29, align 8
  store ptr %30, ptr %7, align 8
  %31 = load ptr, ptr %5, align 8
  %32 = call noalias ptr @strdup(ptr noundef %31) #8
  %33 = load ptr, ptr %7, align 8
  %34 = getelementptr inbounds %struct.private_data, ptr %33, i32 0, i32 2
  store ptr %32, ptr %34, align 8
  %35 = load ptr, ptr %7, align 8
  %36 = getelementptr inbounds %struct.private_data, ptr %35, i32 0, i32 2
  %37 = load ptr, ptr %36, align 8
  %38 = icmp eq ptr %37, null
  br i1 %38, label %39, label %40

39:                                               ; preds = %27
  br label %87

40:                                               ; preds = %27
  %41 = load ptr, ptr %5, align 8
  %42 = call ptr @__archive_write_program_allocate(ptr noundef %41)
  %43 = load ptr, ptr %7, align 8
  %44 = getelementptr inbounds %struct.private_data, ptr %43, i32 0, i32 0
  store ptr %42, ptr %44, align 8
  %45 = load ptr, ptr %7, align 8
  %46 = getelementptr inbounds %struct.private_data, ptr %45, i32 0, i32 0
  %47 = load ptr, ptr %46, align 8
  %48 = icmp eq ptr %47, null
  br i1 %48, label %49, label %50

49:                                               ; preds = %40
  br label %87

50:                                               ; preds = %40
  %51 = load ptr, ptr %7, align 8
  %52 = getelementptr inbounds %struct.private_data, ptr %51, i32 0, i32 1
  %53 = load ptr, ptr %5, align 8
  %54 = call i64 @strlen(ptr noundef %53) #9
  %55 = add i64 9, %54
  %56 = add i64 %55, 1
  %57 = call ptr @archive_string_ensure(ptr noundef %52, i64 noundef %56)
  %58 = icmp eq ptr %57, null
  br i1 %58, label %59, label %60

59:                                               ; preds = %50
  br label %87

60:                                               ; preds = %50
  %61 = load ptr, ptr %7, align 8
  %62 = getelementptr inbounds %struct.private_data, ptr %61, i32 0, i32 1
  %63 = getelementptr inbounds %struct.archive_string, ptr %62, i32 0, i32 1
  store i64 0, ptr %63, align 8
  %64 = load ptr, ptr %7, align 8
  %65 = getelementptr inbounds %struct.private_data, ptr %64, i32 0, i32 1
  %66 = call ptr @archive_strncat(ptr noundef %65, ptr noundef @archive_write_add_filter_program.prefix, i64 noundef 9)
  %67 = load ptr, ptr %7, align 8
  %68 = getelementptr inbounds %struct.private_data, ptr %67, i32 0, i32 1
  %69 = load ptr, ptr %5, align 8
  %70 = call ptr @archive_strcat(ptr noundef %68, ptr noundef %69)
  %71 = load ptr, ptr %7, align 8
  %72 = getelementptr inbounds %struct.private_data, ptr %71, i32 0, i32 1
  %73 = getelementptr inbounds %struct.archive_string, ptr %72, i32 0, i32 0
  %74 = load ptr, ptr %73, align 8
  %75 = load ptr, ptr %6, align 8
  %76 = getelementptr inbounds %struct.archive_write_filter, ptr %75, i32 0, i32 10
  store ptr %74, ptr %76, align 8
  %77 = load ptr, ptr %6, align 8
  %78 = getelementptr inbounds %struct.archive_write_filter, ptr %77, i32 0, i32 11
  store i32 4, ptr %78, align 8
  %79 = load ptr, ptr %6, align 8
  %80 = getelementptr inbounds %struct.archive_write_filter, ptr %79, i32 0, i32 4
  store ptr @archive_compressor_program_open, ptr %80, align 8
  %81 = load ptr, ptr %6, align 8
  %82 = getelementptr inbounds %struct.archive_write_filter, ptr %81, i32 0, i32 5
  store ptr @archive_compressor_program_write, ptr %82, align 8
  %83 = load ptr, ptr %6, align 8
  %84 = getelementptr inbounds %struct.archive_write_filter, ptr %83, i32 0, i32 7
  store ptr @archive_compressor_program_close, ptr %84, align 8
  %85 = load ptr, ptr %6, align 8
  %86 = getelementptr inbounds %struct.archive_write_filter, ptr %85, i32 0, i32 8
  store ptr @archive_compressor_program_free, ptr %86, align 8
  store i32 0, ptr %3, align 4
  br label %91

87:                                               ; preds = %59, %49, %39, %26
  %88 = load ptr, ptr %6, align 8
  %89 = call i32 @archive_compressor_program_free(ptr noundef %88)
  %90 = load ptr, ptr %4, align 8
  call void (ptr, i32, ptr, ...) @archive_set_error(ptr noundef %90, i32 noundef 12, ptr noundef @.str.1)
  store i32 -30, ptr %3, align 4
  br label %91

91:                                               ; preds = %87, %60, %16
  %92 = load i32, ptr %3, align 4
  ret i32 %92
}