; Function Attrs: nounwind uwtable
define dso_local range(i32 -30, 1) i32 @archive_write_add_filter_program(ptr noundef %0, ptr noundef %1) local_unnamed_addr #0 {
  %3 = tail call ptr @__archive_write_allocate_filter(ptr noundef %0) #11
  %4 = tail call i32 @__archive_check_magic(ptr noundef %0, i32 noundef -1329217314, i32 noundef 1, ptr noundef nonnull @.str) #11
  %5 = icmp eq i32 %4, -30
  br i1 %5, label %48, label %6

6:                                                ; preds = %2
  %7 = tail call noalias dereferenceable_or_null(40) ptr @calloc(i64 noundef 1, i64 noundef 40) #12
  %8 = getelementptr inbounds nuw i8, ptr %3, i64 72
  store ptr %7, ptr %8, align 8
  %9 = icmp eq ptr %7, null
  br i1 %9, label %archive_compressor_program_free.exit, label %10

10:                                               ; preds = %6
  %11 = tail call noalias ptr @strdup(ptr noundef %1) #11
  %12 = getelementptr inbounds nuw i8, ptr %7, i64 32
  store ptr %11, ptr %12, align 8
  %13 = icmp eq ptr %11, null
  br i1 %13, label %.thread, label %14

14:                                               ; preds = %10
  %15 = tail call noalias dereferenceable_or_null(48) ptr @calloc(i64 noundef 1, i64 noundef 48) #12
  %16 = icmp eq ptr %15, null
  br i1 %16, label %.thread, label %17

17:                                               ; preds = %14
  %18 = getelementptr inbounds nuw i8, ptr %15, i64 4
  store i32 -1, ptr %18, align 4
  %19 = getelementptr inbounds nuw i8, ptr %15, i64 8
  store i32 -1, ptr %19, align 8
  %20 = tail call noalias ptr @strdup(ptr noundef readonly %1) #11
  %21 = getelementptr inbounds nuw i8, ptr %15, i64 40
  store ptr %20, ptr %21, align 8
  store ptr %15, ptr %7, align 8
  %22 = getelementptr inbounds nuw i8, ptr %7, i64 8
  %23 = tail call i64 @strlen(ptr noundef nonnull dereferenceable(1) %1) #13
  %24 = add i64 %23, 10
  %25 = tail call ptr @archive_string_ensure(ptr noundef nonnull %22, i64 noundef %24) #11
  %26 = icmp eq ptr %25, null
  br i1 %26, label %38, label %27

27:                                               ; preds = %17
  %28 = getelementptr inbounds nuw i8, ptr %7, i64 16
  store i64 0, ptr %28, align 8
  %29 = tail call ptr @archive_strncat(ptr noundef nonnull %22, ptr noundef nonnull @archive_write_add_filter_program.prefix, i64 noundef 9) #11
  %30 = tail call ptr @archive_strcat(ptr noundef nonnull %22, ptr noundef nonnull %1) #11
  %31 = load ptr, ptr %22, align 8
  %32 = getelementptr inbounds nuw i8, ptr %3, i64 80
  store ptr %31, ptr %32, align 8
  %33 = getelementptr inbounds nuw i8, ptr %3, i64 88
  store i32 4, ptr %33, align 8
  %34 = getelementptr inbounds nuw i8, ptr %3, i64 32
  store ptr @archive_compressor_program_open, ptr %34, align 8
  %35 = getelementptr inbounds nuw i8, ptr %3, i64 40
  store ptr @archive_compressor_program_write, ptr %35, align 8
  %36 = getelementptr inbounds nuw i8, ptr %3, i64 56
  store ptr @archive_compressor_program_close, ptr %36, align 8
  %37 = getelementptr inbounds nuw i8, ptr %3, i64 64
  store ptr @archive_compressor_program_free, ptr %37, align 8
  br label %48

38:                                               ; preds = %17
  %.pr.pre = load ptr, ptr %8, align 8
  %.not.i = icmp eq ptr %.pr.pre, null
  br i1 %.not.i, label %archive_compressor_program_free.exit, label %.thread

.thread:                                          ; preds = %14, %10, %38
  %.pr32 = phi ptr [ %.pr.pre, %38 ], [ %7, %10 ], [ %7, %14 ]
  %39 = getelementptr inbounds nuw i8, ptr %.pr32, i64 32
  %40 = load ptr, ptr %39, align 8
  tail call void @free(ptr noundef %40) #11
  %41 = getelementptr inbounds nuw i8, ptr %.pr32, i64 8
  tail call void @archive_string_free(ptr noundef nonnull %41) #11
  %42 = load ptr, ptr %.pr32, align 8
  %.not.i.i = icmp eq ptr %42, null
  br i1 %.not.i.i, label %__archive_write_program_free.exit.i, label %43

43:                                               ; preds = %.thread
  %44 = getelementptr inbounds nuw i8, ptr %42, i64 40
  %45 = load ptr, ptr %44, align 8
  tail call void @free(ptr noundef %45) #11
  %46 = getelementptr inbounds nuw i8, ptr %42, i64 16
  %47 = load ptr, ptr %46, align 8
  tail call void @free(ptr noundef %47) #11
  tail call void @free(ptr noundef nonnull %42) #11
  br label %__archive_write_program_free.exit.i

__archive_write_program_free.exit.i:              ; preds = %43, %.thread
  tail call void @free(ptr noundef nonnull %.pr32) #11
  store ptr null, ptr %8, align 8
  br label %archive_compressor_program_free.exit

archive_compressor_program_free.exit:             ; preds = %6, %38, %__archive_write_program_free.exit.i
  tail call void (ptr, i32, ptr, ...) @archive_set_error(ptr noundef %0, i32 noundef 12, ptr noundef nonnull @.str.1) #11
  br label %48

48:                                               ; preds = %2, %archive_compressor_program_free.exit, %27
  %.0 = phi i32 [ -30, %archive_compressor_program_free.exit ], [ 0, %27 ], [ -30, %2 ]
  ret i32 %.0
}